; Function Attrs: mustprogress nofree norecurse nosync nounwind willreturn memory(argmem: write) uwtable
define dso_local void @_bt_upgrademetapage(ptr noundef writeonly captures(none) initializes((12, 14), (28, 32), (48, 52), (56, 65)) %0) local_unnamed_addr #2 {
  %2 = getelementptr inbounds nuw i8, ptr %0, i64 28
  store i32 3, ptr %2, align 4
  %3 = getelementptr inbounds nuw i8, ptr %0, i64 48
  store i32 0, ptr %3, align 8
  %4 = getelementptr inbounds nuw i8, ptr %0, i64 56
  store double -1.000000e+00, ptr %4, align 8
  %5 = getelementptr inbounds nuw i8, ptr %0, i64 64
  store i8 0, ptr %5, align 8
  %6 = getelementptr inbounds nuw i8, ptr %0, i64 12
  store i16 72, ptr %6, align 4
  ret void
}